target datalayout = "e-m:e-p270:32:32-p271:32:32-p272:64:64-i64:64-i128:128-f80:128-n8:16:32:64-S128"
target triple = "x86_64-pc-linux-gnu"

%class.ShenandoahRegionPartitions = type { i64, i64, ptr, [2 x %class.ShenandoahSimpleBitMap], [2 x i64], [2 x i64], [2 x i64], [2 x i64], [2 x i64], [2 x i64], [2 x i64] }
%class.ShenandoahSimpleBitMap = type { i64, i64, ptr }

@g_assert_poison = external global ptr, align 8
@.str.4 = private unnamed_addr constant [54 x i8] c"src/hotspot/share/gc/shenandoah/shenandoahFreeSet.cpp\00", align 1
@.str.27 = private unnamed_addr constant [8 x i8] c"NotFree\00", align 1
@.str.28 = private unnamed_addr constant [8 x i8] c"Mutator\00", align 1
@.str.29 = private unnamed_addr constant [10 x i8] c"Collector\00", align 1
@.str.30 = private unnamed_addr constant [13 x i8] c"Unrecognized\00", align 1

; Function Attrs: mustprogress nounwind uwtable
define linkonce_odr hidden noundef zeroext i1 @_ZNK22ShenandoahSimpleBitMap6is_setEl(ptr noundef nonnull align 8 dereferenceable(24) %0, i64 noundef %1) #1 comdat align 2 {
  %3 = alloca ptr, align 8
  %4 = alloca i64, align 8
  %5 = alloca i64, align 8
  %6 = alloca i64, align 8
  %7 = alloca i64, align 8
  store ptr %0, ptr %3, align 8
  store i64 %1, ptr %4, align 8
  %8 = load ptr, ptr %3, align 8
  %9 = load i64, ptr %4, align 8
  %10 = ashr i64 %9, 6
  store i64 %10, ptr %5, align 8
  %11 = load i64, ptr %4, align 8
  %12 = and i64 %11, 63
  store i64 %12, ptr %6, align 8
  %13 = load i64, ptr %6, align 8
  %14 = icmp uge i64 %13, 64
  br i1 %14, label %15, label %16

15:                                               ; preds = %2
  br label %19

16:                                               ; preds = %2
  %17 = load i64, ptr %6, align 8
  %18 = shl i64 1, %17
  br label %19

19:                                               ; preds = %16, %15
  %20 = phi i64 [ 0, %15 ], [ %18, %16 ]
  store i64 %20, ptr %7, align 8
  %21 = getelementptr inbounds %class.ShenandoahSimpleBitMap, ptr %8, i32 0, i32 2
  %22 = load ptr, ptr %21, align 8
  %23 = load i64, ptr %5, align 8
  %24 = getelementptr inbounds i64, ptr %22, i64 %23
  %25 = load i64, ptr %24, align 8
  %26 = load i64, ptr %7, align 8
  %27 = and i64 %25, %26
  %28 = icmp ne i64 %27, 0
  %29 = select i1 %28, i1 true, i1 false
  ret i1 %29
}

; Function Attrs: mustprogress nounwind uwtable
define internal noundef ptr @_ZL14partition_name28ShenandoahFreeSetPartitionId(i8 noundef zeroext %0) #1 {
  %2 = alloca ptr, align 8
  %3 = alloca i8, align 1
  store i8 %0, ptr %3, align 1
  %4 = load i8, ptr %3, align 1
  switch i8 %4, label %8 [
    i8 2, label %5
    i8 0, label %6
    i8 1, label %7
  ]

5:                                                ; preds = %1
  store ptr @.str.27, ptr %2, align 8
  br label %12

6:                                                ; preds = %1
  store ptr @.str.28, ptr %2, align 8
  br label %12

7:                                                ; preds = %1
  store ptr @.str.29, ptr %2, align 8
  br label %12

8:                                                ; preds = %1
  br label %9

9:                                                ; preds = %8
  %10 = load ptr, ptr @g_assert_poison, align 8
  store i8 88, ptr %10, align 1
  call void @_Z28report_should_not_reach_herePKci(ptr noundef @.str.4, i32 noundef 44) #10
  unreachable

11:                                               ; No predecessors!
  store ptr @.str.30, ptr %2, align 8
  br label %12

12:                                               ; preds = %11, %7, %6, %5
  %13 = load ptr, ptr %2, align 8
  ret ptr %13
}

; Function Attrs: mustprogress nounwind uwtable
define linkonce_odr hidden noundef zeroext i8 @_ZNK26ShenandoahRegionPartitions10membershipEl(ptr noundef nonnull align 8 dereferenceable(184) %0, i64 noundef %1) #1 comdat align 2 {
  %3 = alloca ptr, align 8
  %4 = alloca i64, align 8
  %5 = alloca i8, align 1
  %6 = alloca i32, align 4
  store ptr %0, ptr %3, align 8
  store i64 %1, ptr %4, align 8
  %7 = load ptr, ptr %3, align 8
  store i8 2, ptr %5, align 1
  store i32 0, ptr %6, align 4
  br label %8

8:                                                ; preds = %22, %2
  %9 = load i32, ptr %6, align 4
  %10 = icmp ult i32 %9, 2
  br i1 %10, label %11, label %25

11:                                               ; preds = %8
  %12 = getelementptr inbounds %class.ShenandoahRegionPartitions, ptr %7, i32 0, i32 3
  %13 = load i32, ptr %6, align 4
  %14 = zext i32 %13 to i64
  %15 = getelementptr inbounds [2 x %class.ShenandoahSimpleBitMap], ptr %12, i64 0, i64 %14
  %16 = load i64, ptr %4, align 8
  %17 = call noundef zeroext i1 @_ZNK22ShenandoahSimpleBitMap6is_setEl(ptr noundef nonnull align 8 dereferenceable(24) %15, i64 noundef %16)
  br i1 %17, label %18, label %21

18:                                               ; preds = %11
  %19 = load i32, ptr %6, align 4
  %20 = trunc i32 %19 to i8
  store i8 %20, ptr %5, align 1
  br label %21

21:                                               ; preds = %18, %11
  br label %22

22:                                               ; preds = %21
  %23 = load i32, ptr %6, align 4
  %24 = add i32 %23, 1
  store i32 %24, ptr %6, align 4
  br label %8, !llvm.loop !10

25:                                               ; preds = %8
  %26 = load i8, ptr %5, align 1
  ret i8 %26
}

; Function Attrs: mustprogress nounwind uwtable
define hidden noundef ptr @_ZNK26ShenandoahRegionPartitions25partition_membership_nameEl(ptr noundef nonnull align 8 dereferenceable(184) %0, i64 noundef %1) #1 align 2 {
  %3 = alloca ptr, align 8
  %4 = alloca i64, align 8
  store ptr %0, ptr %3, align 8
  store i64 %1, ptr %4, align 8
  %5 = load ptr, ptr %3, align 8
  %6 = load i64, ptr %4, align 8
  %7 = call noundef zeroext i8 @_ZNK26ShenandoahRegionPartitions10membershipEl(ptr noundef nonnull align 8 dereferenceable(184) %5, i64 noundef %6)
  %8 = call noundef ptr @_ZL14partition_name28ShenandoahFreeSetPartitionId(i8 noundef zeroext %7)
  ret ptr %8
}