; Function Attrs: mustprogress nofree norecurse nosync nounwind willreturn memory(read, inaccessiblemem: none) uwtable
define hidden noundef nonnull ptr @_ZNK26ShenandoahRegionPartitions25partition_membership_nameEl(ptr nocapture noundef nonnull readonly align 8 dereferenceable(184) %0, i64 noundef %1) local_unnamed_addr #5 align 2 {
  %3 = getelementptr inbounds i8, ptr %0, i64 24
  %4 = ashr i64 %1, 6
  %5 = and i64 %1, 63
  %6 = shl nuw i64 1, %5
  br label %7

7:                                                ; preds = %7, %2
  %8 = phi i1 [ true, %2 ], [ false, %7 ]
  %indvars.iv.i = phi i64 [ 0, %2 ], [ 1, %7 ]
  %.067.i = phi i8 [ 2, %2 ], [ %spec.select.i, %7 ]
  %9 = getelementptr inbounds [2 x %class.ShenandoahSimpleBitMap], ptr %3, i64 0, i64 %indvars.iv.i, i32 2
  %10 = load ptr, ptr %9, align 8
  %11 = getelementptr inbounds i64, ptr %10, i64 %4
  %12 = load i64, ptr %11, align 8
  %13 = and i64 %12, %6
  %.not.i = icmp eq i64 %13, 0
  %14 = trunc nuw nsw i64 %indvars.iv.i to i8
  %spec.select.i = select i1 %.not.i, i8 %.067.i, i8 %14
  br i1 %8, label %7, label %switch.lookup, !llvm.loop !12

switch.lookup:                                    ; preds = %7
  %15 = sext i8 %spec.select.i to i64
  %switch.gep = getelementptr inbounds [3 x ptr], ptr @switch.table._ZN17ShenandoahFreeSet15try_allocate_inEP20ShenandoahHeapRegionR22ShenandoahAllocRequestRb.4, i64 0, i64 %15
  %switch.load = load ptr, ptr %switch.gep, align 8
  ret ptr %switch.load
}